; Function Attrs: nounwind uwtable
define noalias noundef nonnull ptr @l_Lean_Elab_Tactic_RCases___aux__Lean__Elab__Tactic__RCases______unexpand__List__1(ptr noundef %0, ptr noundef %1, ptr noundef %2) local_unnamed_addr #1 {
  %4 = load ptr, ptr @l_Lean_Elab_Tactic_RCases___aux__Lean__Elab__Tactic__RCases______unexpand__List__1___closed__2, align 8, !tbaa !4
  %5 = ptrtoint ptr %0 to i64
  %6 = and i64 %5, 1
  %.not = icmp eq i64 %6, 0
  br i1 %.not, label %7, label %lean_inc.exit31.thread

7:                                                ; preds = %3
  %.val.i = load i32, ptr %0, align 4, !tbaa !8
  %8 = icmp sgt i32 %.val.i, 0
  br i1 %8, label %9, label %11, !prof !11

9:                                                ; preds = %7
  %10 = add nuw i32 %.val.i, 1
  store i32 %10, ptr %0, align 4, !tbaa !8
  br label %lean_inc.exit31

11:                                               ; preds = %7
  %.not.i36 = icmp eq i32 %.val.i, 0
  br i1 %.not.i36, label %lean_inc.exit31, label %12

12:                                               ; preds = %11
  tail call void @lean_inc_ref_cold(ptr noundef nonnull %0) #5
  br label %lean_inc.exit31

lean_inc.exit31:                                  ; preds = %12, %11, %9
  %13 = tail call zeroext i8 @l_Lean_Syntax_isOfKind(ptr noundef nonnull %0, ptr noundef %4) #5
  %14 = icmp eq i8 %13, 0
  br i1 %14, label %18, label %28

lean_inc.exit31.thread:                           ; preds = %3
  %15 = tail call zeroext i8 @l_Lean_Syntax_isOfKind(ptr noundef %0, ptr noundef %4) #5
  %16 = icmp eq i8 %15, 0
  br i1 %16, label %lean_dec.exit30, label %.thread42

.thread42:                                        ; preds = %lean_inc.exit31.thread
  %17 = tail call ptr @l_Lean_replaceRef(ptr noundef %0, ptr noundef %1) #5
  br label %lean_dec.exit29

18:                                               ; preds = %lean_inc.exit31
  %19 = load i32, ptr %0, align 4, !tbaa !8
  %20 = icmp sgt i32 %19, 1
  br i1 %20, label %21, label %23, !prof !11

21:                                               ; preds = %18
  %22 = add nsw i32 %19, -1
  store i32 %22, ptr %0, align 4, !tbaa !8
  br label %lean_dec.exit30

23:                                               ; preds = %18
  %.not.i = icmp eq i32 %19, 0
  br i1 %.not.i, label %lean_dec.exit30, label %24

24:                                               ; preds = %23
  tail call void @lean_dec_ref_cold(ptr noundef nonnull %0) #5
  br label %lean_dec.exit30

lean_dec.exit30:                                  ; preds = %lean_inc.exit31.thread, %24, %23, %21
  tail call void @lean_inc_heartbeat() #5
  %25 = tail call noalias ptr @mi_malloc_small(i64 noundef 24) #5
  %26 = icmp eq ptr %25, null
  br i1 %26, label %27, label %lean_alloc_ctor.exit

27:                                               ; preds = %lean_dec.exit30
  tail call void @lean_internal_panic_out_of_memory() #6
  unreachable

28:                                               ; preds = %lean_inc.exit31
  %29 = tail call ptr @l_Lean_replaceRef(ptr noundef nonnull %0, ptr noundef %1) #5
  %30 = load i32, ptr %0, align 4, !tbaa !8
  %31 = icmp sgt i32 %30, 1
  br i1 %31, label %32, label %34, !prof !11

32:                                               ; preds = %28
  %33 = add nsw i32 %30, -1
  store i32 %33, ptr %0, align 4, !tbaa !8
  br label %lean_dec.exit29

34:                                               ; preds = %28
  %.not.i32 = icmp eq i32 %30, 0
  br i1 %.not.i32, label %lean_dec.exit29, label %35

35:                                               ; preds = %34
  tail call void @lean_dec_ref_cold(ptr noundef nonnull %0) #5
  br label %lean_dec.exit29

lean_dec.exit29:                                  ; preds = %35, %34, %32, %.thread42
  %36 = phi ptr [ %17, %.thread42 ], [ %29, %32 ], [ %29, %34 ], [ %29, %35 ]
  %37 = tail call ptr @l_Lean_SourceInfo_fromRef(ptr noundef %36, i8 noundef zeroext 0) #5
  %38 = ptrtoint ptr %36 to i64
  %39 = and i64 %38, 1
  %.not43 = icmp eq i64 %39, 0
  br i1 %.not43, label %40, label %lean_dec.exit

40:                                               ; preds = %lean_dec.exit29
  %41 = load i32, ptr %36, align 4, !tbaa !8
  %42 = icmp sgt i32 %41, 1
  br i1 %42, label %43, label %45, !prof !11

43:                                               ; preds = %40
  %44 = add nsw i32 %41, -1
  store i32 %44, ptr %36, align 4, !tbaa !8
  br label %lean_dec.exit

45:                                               ; preds = %40
  %.not.i34 = icmp eq i32 %41, 0
  br i1 %.not.i34, label %lean_dec.exit, label %46

46:                                               ; preds = %45
  tail call void @lean_dec_ref_cold(ptr noundef nonnull %36) #5
  br label %lean_dec.exit

lean_dec.exit:                                    ; preds = %46, %45, %43, %lean_dec.exit29
  %47 = load ptr, ptr @l_Lean_Elab_Tactic_RCases_termList_u03a3____x40_Lean_Elab_Tactic_RCases___hyg_268____closed__16, align 8, !tbaa !4
  %48 = ptrtoint ptr %37 to i64
  %49 = and i64 %48, 1
  %.not44 = icmp eq i64 %49, 0
  br i1 %.not44, label %50, label %lean_inc.exit

50:                                               ; preds = %lean_dec.exit
  %.val.i37 = load i32, ptr %37, align 4, !tbaa !8
  %51 = icmp sgt i32 %.val.i37, 0
  br i1 %51, label %52, label %54, !prof !11

52:                                               ; preds = %50
  %53 = add nuw i32 %.val.i37, 1
  store i32 %53, ptr %37, align 4, !tbaa !8
  br label %lean_inc.exit

54:                                               ; preds = %50
  %.not.i38 = icmp eq i32 %.val.i37, 0
  br i1 %.not.i38, label %lean_inc.exit, label %55

55:                                               ; preds = %54
  tail call void @lean_inc_ref_cold(ptr noundef nonnull %37) #5
  br label %lean_inc.exit

lean_inc.exit:                                    ; preds = %55, %54, %52, %lean_dec.exit
  tail call void @lean_inc_heartbeat() #5
  %56 = tail call noalias ptr @mi_malloc_small(i64 noundef 24) #5
  %57 = icmp eq ptr %56, null
  br i1 %57, label %58, label %lean_alloc_ctor.exit40

58:                                               ; preds = %lean_inc.exit
  tail call void @lean_internal_panic_out_of_memory() #6
  unreachable

lean_alloc_ctor.exit40:                           ; preds = %lean_inc.exit
  %59 = getelementptr inbounds nuw i8, ptr %56, i64 4
  store i32 1, ptr %56, align 4, !tbaa !8
  store i32 33685528, ptr %59, align 4
  %60 = getelementptr inbounds nuw i8, ptr %56, i64 8
  store ptr %37, ptr %60, align 8, !tbaa !4
  %61 = getelementptr inbounds nuw i8, ptr %56, i64 16
  store ptr %47, ptr %61, align 8, !tbaa !4
  %62 = load ptr, ptr @l_Lean_Elab_Tactic_RCases_termList_u03a3____x40_Lean_Elab_Tactic_RCases___hyg_268____closed__15, align 8, !tbaa !4
  %63 = tail call ptr @l_Lean_Syntax_node1(ptr noundef %37, ptr noundef %62, ptr noundef nonnull %56) #5
  tail call void @lean_inc_heartbeat() #5
  %64 = tail call noalias ptr @mi_malloc_small(i64 noundef 24) #5
  %65 = icmp eq ptr %64, null
  br i1 %65, label %66, label %lean_alloc_ctor.exit

66:                                               ; preds = %lean_alloc_ctor.exit40
  tail call void @lean_internal_panic_out_of_memory() #6
  unreachable

lean_alloc_ctor.exit:                             ; preds = %lean_alloc_ctor.exit40, %lean_dec.exit30
  %.sink51 = phi ptr [ %25, %lean_dec.exit30 ], [ %64, %lean_alloc_ctor.exit40 ]
  %.sink48 = phi i32 [ 16908312, %lean_dec.exit30 ], [ 131096, %lean_alloc_ctor.exit40 ]
  %.sink = phi ptr [ inttoptr (i64 1 to ptr), %lean_dec.exit30 ], [ %63, %lean_alloc_ctor.exit40 ]
  %67 = getelementptr inbounds nuw i8, ptr %.sink51, i64 4
  store i32 1, ptr %.sink51, align 4, !tbaa !8
  store i32 %.sink48, ptr %67, align 4
  %68 = getelementptr inbounds nuw i8, ptr %.sink51, i64 8
  store ptr %.sink, ptr %68, align 8, !tbaa !4
  %69 = getelementptr inbounds nuw i8, ptr %.sink51, i64 16
  store ptr %2, ptr %69, align 8, !tbaa !4
  ret ptr %.sink51
}